; Function Attrs: mustprogress nounwind uwtable
define hidden { ptr, i32 } @_ZN4llvm16DAGTypeLegalizer19PromoteIntOp_BRCONDEPNS_6SDNodeEj(ptr noundef nonnull align 8 dereferenceable(2512) %0, ptr noundef %1, i32 %2) local_unnamed_addr #0 align 2 {
  %4 = getelementptr inbounds nuw i8, ptr %1, i64 40
  %5 = load ptr, ptr %4, align 8
  %6 = getelementptr inbounds i8, ptr %5, i64 40
  %.sroa.06.0.copyload = load ptr, ptr %6, align 8
  %.sroa.27.0..sroa_idx = getelementptr inbounds i8, ptr %5, i64 48
  %.sroa.27.0.copyload = load i32, ptr %.sroa.27.0..sroa_idx, align 8
  %7 = tail call { ptr, i32 } @_ZN4llvm16DAGTypeLegalizer20PromoteTargetBooleanENS_7SDValueENS_3EVTE(ptr noundef nonnull align 8 dereferenceable(2512) %0, ptr %.sroa.06.0.copyload, i32 %.sroa.27.0.copyload, i16 1, ptr null) #17
  %.fca.0.extract = extractvalue { ptr, i32 } %7, 0
  %.fca.1.extract = extractvalue { ptr, i32 } %7, 1
  %8 = getelementptr inbounds nuw i8, ptr %0, i64 8
  %9 = load ptr, ptr %8, align 8
  %10 = load ptr, ptr %4, align 8
  %.sroa.01.0.copyload = load ptr, ptr %10, align 8
  %.sroa.22.0..sroa_idx = getelementptr inbounds i8, ptr %10, i64 8
  %.sroa.22.0.copyload = load i32, ptr %.sroa.22.0..sroa_idx, align 8
  %11 = getelementptr inbounds i8, ptr %10, i64 80
  %12 = tail call noundef ptr @_ZN4llvm12SelectionDAG18UpdateNodeOperandsEPNS_6SDNodeENS_7SDValueES3_S3_(ptr noundef nonnull align 8 dereferenceable(904) %9, ptr noundef nonnull %1, ptr %.sroa.01.0.copyload, i32 %.sroa.22.0.copyload, ptr %.fca.0.extract, i32 %.fca.1.extract, ptr noundef nonnull byval(%"class.llvm::SDValue") align 8 %11) #17
  %.fca.0.insert = insertvalue { ptr, i32 } poison, ptr %12, 0
  %.fca.1.insert = insertvalue { ptr, i32 } %.fca.0.insert, i32 0, 1
  ret { ptr, i32 } %.fca.1.insert
}